target datalayout = "e-m:e-p270:32:32-p271:32:32-p272:64:64-i64:64-i128:128-f80:128-n8:16:32:64-S128"
target triple = "x86_64-pc-linux-gnu"

%struct.tinfl_decompressor_tag = type { i32, i32, i32, i32, i32, i32, i32, i32, i32, i32, i32, [3 x i32], i64, i64, [3 x %struct.tinfl_huff_table], [4 x i8], [457 x i8] }
%struct.tinfl_huff_table = type { [288 x i8], [1024 x i16], [576 x i16] }

; Function Attrs: mustprogress nounwind uwtable
define ptr @tinfl_decompress_mem_to_heap(ptr noundef %0, i64 noundef %1, ptr noundef %2, i32 noundef %3) #4 {
  %5 = alloca ptr, align 8
  %6 = alloca ptr, align 8
  %7 = alloca i64, align 8
  %8 = alloca ptr, align 8
  %9 = alloca i32, align 4
  %10 = alloca %struct.tinfl_decompressor_tag, align 8
  %11 = alloca ptr, align 8
  %12 = alloca ptr, align 8
  %13 = alloca i64, align 8
  %14 = alloca i64, align 8
  %15 = alloca i64, align 8
  %16 = alloca i64, align 8
  %17 = alloca i64, align 8
  %18 = alloca i32, align 4
  store ptr %0, ptr %6, align 8
  store i64 %1, ptr %7, align 8
  store ptr %2, ptr %8, align 8
  store i32 %3, ptr %9, align 4
  store ptr null, ptr %11, align 8
  store i64 0, ptr %13, align 8
  store i64 0, ptr %14, align 8
  %19 = load ptr, ptr %8, align 8
  store i64 0, ptr %19, align 8
  br label %20

20:                                               ; preds = %4
  %21 = getelementptr inbounds %struct.tinfl_decompressor_tag, ptr %10, i32 0, i32 0
  store i32 0, ptr %21, align 8
  br label %22

22:                                               ; preds = %20
  br label %23

23:                                               ; preds = %83, %22
  %24 = load i64, ptr %7, align 8
  %25 = load i64, ptr %13, align 8
  %26 = sub i64 %24, %25
  store i64 %26, ptr %15, align 8
  %27 = load i64, ptr %14, align 8
  %28 = load ptr, ptr %8, align 8
  %29 = load i64, ptr %28, align 8
  %30 = sub i64 %27, %29
  store i64 %30, ptr %16, align 8
  %31 = load ptr, ptr %6, align 8
  %32 = load i64, ptr %13, align 8
  %33 = getelementptr inbounds i8, ptr %31, i64 %32
  %34 = load ptr, ptr %11, align 8
  %35 = load ptr, ptr %11, align 8
  %36 = icmp ne ptr %35, null
  br i1 %36, label %37, label %42

37:                                               ; preds = %23
  %38 = load ptr, ptr %11, align 8
  %39 = load ptr, ptr %8, align 8
  %40 = load i64, ptr %39, align 8
  %41 = getelementptr inbounds i8, ptr %38, i64 %40
  br label %43

42:                                               ; preds = %23
  br label %43

43:                                               ; preds = %42, %37
  %44 = phi ptr [ %41, %37 ], [ null, %42 ]
  %45 = load i32, ptr %9, align 4
  %46 = and i32 %45, -3
  %47 = or i32 %46, 4
  %48 = call i32 @tinfl_decompress(ptr noundef %10, ptr noundef %33, ptr noundef %15, ptr noundef %34, ptr noundef %44, ptr noundef %16, i32 noundef %47)
  store i32 %48, ptr %18, align 4
  %49 = load i32, ptr %18, align 4
  %50 = icmp slt i32 %49, 0
  br i1 %50, label %54, label %51

51:                                               ; preds = %43
  %52 = load i32, ptr %18, align 4
  %53 = icmp eq i32 %52, 1
  br i1 %53, label %54, label %57

54:                                               ; preds = %51, %43
  %55 = load ptr, ptr %11, align 8
  call void @free(ptr noundef %55) #3
  %56 = load ptr, ptr %8, align 8
  store i64 0, ptr %56, align 8
  store ptr null, ptr %5, align 8
  br label %88

57:                                               ; preds = %51
  %58 = load i64, ptr %15, align 8
  %59 = load i64, ptr %13, align 8
  %60 = add i64 %59, %58
  store i64 %60, ptr %13, align 8
  %61 = load i64, ptr %16, align 8
  %62 = load ptr, ptr %8, align 8
  %63 = load i64, ptr %62, align 8
  %64 = add i64 %63, %61
  store i64 %64, ptr %62, align 8
  %65 = load i32, ptr %18, align 4
  %66 = icmp eq i32 %65, 0
  br i1 %66, label %67, label %68

67:                                               ; preds = %57
  br label %86

68:                                               ; preds = %57
  %69 = load i64, ptr %14, align 8
  %70 = mul i64 %69, 2
  store i64 %70, ptr %17, align 8
  %71 = load i64, ptr %17, align 8
  %72 = icmp ult i64 %71, 128
  br i1 %72, label %73, label %74

73:                                               ; preds = %68
  store i64 128, ptr %17, align 8
  br label %74

74:                                               ; preds = %73, %68
  %75 = load ptr, ptr %11, align 8
  %76 = load i64, ptr %17, align 8
  %77 = call ptr @realloc(ptr noundef %75, i64 noundef %76) #25
  store ptr %77, ptr %12, align 8
  %78 = load ptr, ptr %12, align 8
  %79 = icmp ne ptr %78, null
  br i1 %79, label %83, label %80

80:                                               ; preds = %74
  %81 = load ptr, ptr %11, align 8
  call void @free(ptr noundef %81) #3
  %82 = load ptr, ptr %8, align 8
  store i64 0, ptr %82, align 8
  store ptr null, ptr %5, align 8
  br label %88

83:                                               ; preds = %74
  %84 = load ptr, ptr %12, align 8
  store ptr %84, ptr %11, align 8
  %85 = load i64, ptr %17, align 8
  store i64 %85, ptr %14, align 8
  br label %23, !llvm.loop !99

86:                                               ; preds = %67
  %87 = load ptr, ptr %11, align 8
  store ptr %87, ptr %5, align 8
  br label %88

88:                                               ; preds = %86, %80, %54
  %89 = load ptr, ptr %5, align 8
  ret ptr %89
}