; Function Attrs: mustprogress nounwind uwtable
define noundef ptr @tinfl_decompress_mem_to_heap(ptr noundef %0, i64 noundef %1, ptr nocapture noundef %2, i32 noundef %3) local_unnamed_addr #4 {
  %5 = alloca %struct.tinfl_decompressor_tag, align 8
  %6 = alloca i64, align 8
  %7 = alloca i64, align 8
  store i64 0, ptr %2, align 8
  store i32 0, ptr %5, align 8
  %8 = and i32 %3, -7
  %9 = or disjoint i32 %8, 4
  br label %10

10:                                               ; preds = %27, %4
  %11 = phi i64 [ 0, %4 ], [ %25, %27 ]
  %.032 = phi ptr [ null, %4 ], [ %30, %27 ]
  %.031 = phi i64 [ 0, %4 ], [ %28, %27 ]
  %.030 = phi i64 [ 0, %4 ], [ %spec.store.select, %27 ]
  %12 = sub i64 %1, %.031
  store i64 %12, ptr %6, align 8
  %13 = sub i64 %.030, %11
  store i64 %13, ptr %7, align 8
  %14 = getelementptr inbounds i8, ptr %0, i64 %.031
  %.not = icmp eq ptr %.032, null
  br i1 %.not, label %.split33, label %.split

.split33:                                         ; preds = %10
  %15 = call i32 @tinfl_decompress(ptr noundef nonnull %5, ptr noundef %14, ptr noundef nonnull %6, ptr noundef null, ptr noundef null, ptr noundef nonnull %7, i32 noundef %9)
  br label %18

.split:                                           ; preds = %10
  %16 = getelementptr inbounds i8, ptr %.032, i64 %11
  %17 = call i32 @tinfl_decompress(ptr noundef nonnull %5, ptr noundef %14, ptr noundef nonnull %6, ptr noundef nonnull %.032, ptr noundef nonnull %16, ptr noundef nonnull %7, i32 noundef %9)
  br label %18

18:                                               ; preds = %.split33, %.split
  %phi.call = phi i32 [ %17, %.split ], [ %15, %.split33 ]
  %19 = icmp slt i32 %phi.call, 0
  %20 = icmp eq i32 %phi.call, 1
  %or.cond = or i1 %19, %20
  br i1 %or.cond, label %.loopexit.sink.split, label %21

21:                                               ; preds = %18
  %22 = load i64, ptr %6, align 8
  %23 = load i64, ptr %7, align 8
  %24 = load i64, ptr %2, align 8
  %25 = add i64 %24, %23
  store i64 %25, ptr %2, align 8
  %26 = icmp eq i32 %phi.call, 0
  br i1 %26, label %.loopexit, label %27

27:                                               ; preds = %21
  %28 = add i64 %22, %.031
  %29 = shl i64 %.030, 1
  %spec.store.select = call i64 @llvm.umax.i64(i64 %29, i64 128)
  %30 = call ptr @realloc(ptr noundef %.032, i64 noundef %spec.store.select) #47
  %.not35 = icmp eq ptr %30, null
  br i1 %.not35, label %.loopexit.sink.split, label %10, !llvm.loop !96

.loopexit.sink.split:                             ; preds = %27, %18
  call void @free(ptr noundef %.032) #41
  store i64 0, ptr %2, align 8
  br label %.loopexit

.loopexit:                                        ; preds = %21, %.loopexit.sink.split
  %.0 = phi ptr [ null, %.loopexit.sink.split ], [ %.032, %21 ]
  ret ptr %.0
}